; Function Attrs: inlinehint nofree norecurse nosync nounwind memory(read, argmem: readwrite, inaccessiblemem: none) uwtable
define internal fastcc i32 @get_ur_golomb_jpegls(ptr noundef captures(none) %0, i32 noundef %1, i32 noundef %2, i32 noundef %3) unnamed_addr #6 {
  %5 = getelementptr inbounds nuw i8, ptr %0, i64 16
  %6 = load i32, ptr %5, align 8, !tbaa !4
  %7 = getelementptr inbounds nuw i8, ptr %0, i64 24
  %8 = load i32, ptr %7, align 8, !tbaa !11
  %9 = load ptr, ptr %0, align 8, !tbaa !12
  %10 = lshr i32 %6, 3
  %11 = zext nneg i32 %10 to i64
  %12 = getelementptr inbounds nuw i8, ptr %9, i64 %11
  %13 = load i32, ptr %12, align 1, !tbaa !13
  %14 = tail call i32 @llvm.bswap.i32(i32 %13)
  %15 = and i32 %6, 7
  %16 = shl i32 %14, %15
  %.not.i = icmp ult i32 %16, 65536
  %17 = lshr i32 %16, 16
  %spec.select.i = select i1 %.not.i, i32 %16, i32 %17
  %spec.select12.i = select i1 %.not.i, i32 0, i32 16
  %.not11.i = icmp samesign ult i32 %spec.select.i, 256
  %18 = lshr i32 %spec.select.i, 8
  %19 = or disjoint i32 %spec.select12.i, 8
  %.110.i = select i1 %.not11.i, i32 %spec.select.i, i32 %18
  %.1.i = select i1 %.not11.i, i32 %spec.select12.i, i32 %19
  %20 = zext nneg i32 %.110.i to i64
  %21 = getelementptr inbounds nuw [256 x i8], ptr @ff_log2_tab, i64 0, i64 %20
  %22 = load i8, ptr %21, align 1, !tbaa !13
  %23 = zext i8 %22 to i32
  %24 = add nuw nsw i32 %.1.i, %23
  %25 = sub nsw i32 %24, %1
  %26 = icmp sgt i32 %25, 6
  %27 = sub nsw i32 32, %24
  %28 = icmp slt i32 %27, %2
  %or.cond = select i1 %26, i1 %28, i1 false
  br i1 %or.cond, label %34, label %.preheader126

.preheader126:                                    ; preds = %4
  %29 = icmp sgt i32 %2, 24
  %30 = icmp ult i32 %16, 128
  %31 = and i1 %29, %30
  br i1 %31, label %.lr.ph, label %.preheader

.lr.ph:                                           ; preds = %.preheader126
  %32 = getelementptr inbounds nuw i8, ptr %0, i64 20
  %33 = load i32, ptr %32, align 4, !tbaa !79
  br label %45

34:                                               ; preds = %4
  %35 = lshr i32 %16, %25
  %36 = sub nsw i32 30, %24
  %37 = shl i32 %36, %1
  %38 = add i32 %35, %37
  %39 = add nsw i32 %1, 32
  %40 = add i32 %39, %6
  %41 = sub i32 %40, %24
  %. = tail call i32 @llvm.umin.i32(i32 %8, i32 %41)
  br label %.loopexit

.preheader:                                       ; preds = %47, %.preheader126
  %.0110.lcssa = phi i32 [ %6, %.preheader126 ], [ %49, %47 ]
  %.0108.lcssa = phi i32 [ %16, %.preheader126 ], [ %56, %47 ]
  %.0.lcssa = phi i32 [ 0, %.preheader126 ], [ %46, %47 ]
  %42 = icmp slt i32 %.0.lcssa, %2
  %43 = icmp sgt i32 %.0108.lcssa, -1
  %44 = select i1 %42, i1 %43, i1 false
  br i1 %44, label %.lr.ph136, label %._crit_edge

45:                                               ; preds = %.lr.ph, %47
  %46 = phi i32 [ 25, %.lr.ph ], [ %57, %47 ]
  %.0110130 = phi i32 [ %6, %.lr.ph ], [ %49, %47 ]
  %.not122 = icmp ugt i32 %33, %.0110130
  br i1 %.not122, label %47, label %.loopexit

47:                                               ; preds = %45
  %48 = add i32 %.0110130, 25
  %49 = tail call i32 @llvm.umin.i32(i32 %8, i32 %48)
  %50 = lshr i32 %49, 3
  %51 = zext nneg i32 %50 to i64
  %52 = getelementptr inbounds nuw i8, ptr %9, i64 %51
  %53 = load i32, ptr %52, align 1, !tbaa !13
  %54 = tail call i32 @llvm.bswap.i32(i32 %53)
  %55 = and i32 %49, 7
  %56 = shl i32 %54, %55
  %57 = add nuw nsw i32 %46, 25
  %58 = icmp sle i32 %57, %2
  %59 = icmp ult i32 %56, 128
  %60 = select i1 %58, i1 %59, i1 false
  br i1 %60, label %45, label %.preheader, !llvm.loop !105

.lr.ph136:                                        ; preds = %.preheader, %.lr.ph136
  %.1135 = phi i32 [ %64, %.lr.ph136 ], [ %.0.lcssa, %.preheader ]
  %.1109134 = phi i32 [ %61, %.lr.ph136 ], [ %.0108.lcssa, %.preheader ]
  %.1111133 = phi i32 [ %63, %.lr.ph136 ], [ %.0110.lcssa, %.preheader ]
  %61 = shl nuw i32 %.1109134, 1
  %62 = add i32 %.1111133, 1
  %63 = tail call i32 @llvm.umin.i32(i32 %8, i32 %62)
  %64 = add nuw nsw i32 %.1135, 1
  %65 = icmp slt i32 %64, %2
  %66 = icmp sgt i32 %61, -1
  %67 = select i1 %65, i1 %66, i1 false
  br i1 %67, label %.lr.ph136, label %._crit_edge, !llvm.loop !106

._crit_edge:                                      ; preds = %.lr.ph136, %.preheader
  %.1111.lcssa = phi i32 [ %.0110.lcssa, %.preheader ], [ %63, %.lr.ph136 ]
  %.1.lcssa = phi i32 [ %.0.lcssa, %.preheader ], [ %64, %.lr.ph136 ]
  %68 = add i32 %.1111.lcssa, 1
  %69 = tail call i32 @llvm.umin.i32(i32 %8, i32 %68)
  %70 = lshr i32 %69, 3
  %71 = zext nneg i32 %70 to i64
  %72 = getelementptr inbounds nuw i8, ptr %9, i64 %71
  %73 = load i32, ptr %72, align 1, !tbaa !13
  %74 = tail call i32 @llvm.bswap.i32(i32 %73)
  %75 = and i32 %69, 7
  %76 = shl i32 %74, %75
  %77 = add nsw i32 %2, -1
  %78 = icmp slt i32 %.1.lcssa, %77
  br i1 %78, label %79, label %107

79:                                               ; preds = %._crit_edge
  %.not = icmp eq i32 %1, 0
  br i1 %.not, label %104, label %80

80:                                               ; preds = %79
  %81 = icmp sgt i32 %1, 24
  br i1 %81, label %82, label %99

82:                                               ; preds = %80
  %83 = lshr i32 %76, 16
  %84 = add nsw i32 %1, -16
  %85 = shl i32 %83, %84
  %86 = add i32 %69, 16
  %87 = tail call i32 @llvm.umin.i32(i32 %8, i32 %86)
  %88 = lshr i32 %87, 3
  %89 = zext nneg i32 %88 to i64
  %90 = getelementptr inbounds nuw i8, ptr %9, i64 %89
  %91 = load i32, ptr %90, align 1, !tbaa !13
  %92 = tail call i32 @llvm.bswap.i32(i32 %91)
  %93 = and i32 %87, 7
  %94 = shl i32 %92, %93
  %95 = sub nsw i32 48, %1
  %96 = lshr i32 %94, %95
  %97 = or i32 %96, %85
  %98 = add i32 %87, %84
  %.125 = tail call i32 @llvm.umin.i32(i32 %8, i32 %98)
  br label %104

99:                                               ; preds = %80
  %100 = sub nsw i32 32, %1
  %101 = lshr i32 %76, %100
  %102 = add i32 %69, %1
  %103 = tail call i32 @llvm.umin.i32(i32 %8, i32 %102)
  br label %104

104:                                              ; preds = %79, %82, %99
  %.0112 = phi i32 [ %97, %82 ], [ %101, %99 ], [ 0, %79 ]
  %.2 = phi i32 [ %.125, %82 ], [ %103, %99 ], [ %69, %79 ]
  %105 = shl i32 %.1.lcssa, %1
  %106 = add i32 %.0112, %105
  br label %.loopexit

107:                                              ; preds = %._crit_edge
  %108 = icmp eq i32 %.1.lcssa, %77
  br i1 %108, label %109, label %.loopexit

109:                                              ; preds = %107
  %110 = sub nsw i32 32, %3
  %111 = lshr i32 %76, %110
  %112 = add i32 %69, %3
  %113 = tail call i32 @llvm.umin.i32(i32 %8, i32 %112)
  %114 = add i32 %111, 1
  br label %.loopexit

.loopexit:                                        ; preds = %45, %107, %109, %104, %34
  %storemerge123 = phi i32 [ %., %34 ], [ %.2, %104 ], [ %113, %109 ], [ %69, %107 ], [ %.0110130, %45 ]
  %.0106 = phi i32 [ %38, %34 ], [ %106, %104 ], [ %114, %109 ], [ -1, %107 ], [ -1, %45 ]
  store i32 %storemerge123, ptr %5, align 8, !tbaa !4
  ret i32 %.0106
}